; Function Attrs: mustprogress nofree norecurse nounwind willreturn memory(argmem: readwrite) uwtable
define hidden noundef ptr @hb_paint_funcs_reference(ptr noundef returned %0) local_unnamed_addr #4 {
  %.not.i.i = icmp eq ptr %0, null
  br i1 %.not.i.i, label %_ZL19hb_object_referenceI16hb_paint_funcs_tEPT_S2_.exit, label %2

2:                                                ; preds = %1
  %3 = load atomic i32, ptr %0 monotonic, align 4
  %4 = load atomic i32, ptr %0 monotonic, align 4
  %.not.i7.i = icmp eq i32 %4, 0
  br i1 %.not.i7.i, label %_ZL19hb_object_referenceI16hb_paint_funcs_tEPT_S2_.exit, label %5

5:                                                ; preds = %2
  %6 = atomicrmw add ptr %0, i32 1 acq_rel, align 4
  br label %_ZL19hb_object_referenceI16hb_paint_funcs_tEPT_S2_.exit

_ZL19hb_object_referenceI16hb_paint_funcs_tEPT_S2_.exit: ; preds = %1, %2, %5
  ret ptr %0
}